; Function Attrs: mustprogress uwtable
define void @_ZN17grpc_event_engine12experimental12Epoll1Poller4KickEv(ptr noundef nonnull align 8 dereferenceable(1281) %this) unnamed_addr #4 align 2 personality ptr @__gxx_personality_v0 {
entry:
  %ref.tmp = alloca %"class.absl::lts_20230802::Status", align 8
  %mu_ = getelementptr inbounds i8, ptr %this, i64 16
  tail call void @_ZN4absl12lts_202308025Mutex4LockEv(ptr noundef nonnull align 8 dereferenceable(8) %mu_)
  %was_kicked_ = getelementptr inbounds i8, ptr %this, i64 1244
  %0 = load i8, ptr %was_kicked_, align 4
  %1 = and i8 %0, 1
  %tobool.not = icmp eq i8 %1, 0
  br i1 %tobool.not, label %lor.lhs.false, label %cleanup

lor.lhs.false:                                    ; preds = %entry
  %closed_ = getelementptr inbounds i8, ptr %this, i64 1280
  %2 = load i8, ptr %closed_, align 8
  %3 = and i8 %2, 1
  %tobool2.not = icmp eq i8 %3, 0
  br i1 %tobool2.not, label %if.end, label %cleanup

if.end:                                           ; preds = %lor.lhs.false
  store i8 1, ptr %was_kicked_, align 4
  %wakeup_fd_ = getelementptr inbounds i8, ptr %this, i64 1272
  %4 = load ptr, ptr %wakeup_fd_, align 8
  %vtable = load ptr, ptr %4, align 8
  %vfn = getelementptr inbounds i8, ptr %vtable, i64 8
  %5 = load ptr, ptr %vfn, align 8
  invoke void %5(ptr nonnull sret(%"class.absl::lts_20230802::Status") align 8 %ref.tmp, ptr noundef nonnull align 8 dereferenceable(16) %4)
          to label %invoke.cont unwind label %lpad

invoke.cont:                                      ; preds = %if.end
  %6 = load i64, ptr %ref.tmp, align 8
  %and.i.i.i = and i64 %6, 1
  %cmp.i.i.i = icmp eq i64 %and.i.i.i, 0
  br i1 %cmp.i.i.i, label %_ZN4absl12lts_202308026StatusD2Ev.exit, label %if.then.i.i

if.then.i.i:                                      ; preds = %invoke.cont
  invoke void @_ZN4absl12lts_202308026Status15UnrefNonInlinedEm(i64 noundef %6)
          to label %if.then7 unwind label %terminate.lpad.i

terminate.lpad.i:                                 ; preds = %if.then.i.i
  %7 = landingpad { ptr, i32 }
          catch ptr null
  %8 = extractvalue { ptr, i32 } %7, 0
  call void @__clang_call_terminate(ptr %8) #19
  unreachable

_ZN4absl12lts_202308026StatusD2Ev.exit:           ; preds = %invoke.cont
  %cmp.i = icmp eq i64 %6, 0
  br i1 %cmp.i, label %cleanup, label %if.then7

if.then7:                                         ; preds = %if.then.i.i, %_ZN4absl12lts_202308026StatusD2Ev.exit
  invoke void @gpr_assertion_failed(ptr noundef nonnull @.str, i32 noundef 561, ptr noundef nonnull @.str.11) #23
          to label %invoke.cont8 unwind label %lpad

invoke.cont8:                                     ; preds = %if.then7
  unreachable

lpad:                                             ; preds = %if.then7, %if.end
  %9 = landingpad { ptr, i32 }
          cleanup
  invoke void @_ZN4absl12lts_202308025Mutex6UnlockEv(ptr noundef nonnull align 8 dereferenceable(8) %mu_)
          to label %_ZN4absl12lts_202308029MutexLockD2Ev.exit unwind label %terminate.lpad.i1

terminate.lpad.i1:                                ; preds = %lpad
  %10 = landingpad { ptr, i32 }
          catch ptr null
  %11 = extractvalue { ptr, i32 } %10, 0
  call void @__clang_call_terminate(ptr %11) #19
  unreachable

_ZN4absl12lts_202308029MutexLockD2Ev.exit:        ; preds = %lpad
  resume { ptr, i32 } %9

cleanup:                                          ; preds = %_ZN4absl12lts_202308026StatusD2Ev.exit, %entry, %lor.lhs.false
  invoke void @_ZN4absl12lts_202308025Mutex6UnlockEv(ptr noundef nonnull align 8 dereferenceable(8) %mu_)
          to label %_ZN4absl12lts_202308029MutexLockD2Ev.exit3 unwind label %terminate.lpad.i2

terminate.lpad.i2:                                ; preds = %cleanup
  %12 = landingpad { ptr, i32 }
          catch ptr null
  %13 = extractvalue { ptr, i32 } %12, 0
  call void @__clang_call_terminate(ptr %13) #19
  unreachable

_ZN4absl12lts_202308029MutexLockD2Ev.exit3:       ; preds = %cleanup
  ret void
}